target datalayout = "e-m:e-p270:32:32-p271:32:32-p272:64:64-i64:64-i128:128-f80:128-n8:16:32:64-S128"
target triple = "x86_64-pc-linux-gnu"

%struct.range_set = type { i32, i32, ptr }
%struct.line_log_data = type { ptr, ptr, %struct.range_set, ptr, %struct.diff_ranges }
%struct.diff_ranges = type { %struct.range_set, %struct.range_set }

@.str = private unnamed_addr constant [27 x i8] c"size_t overflow: %lu * %lu\00", align 1

; Function Attrs: inlinehint nounwind uwtable
define internal i64 @st_mult(i64 noundef %0, i64 noundef %1) #3 {
  %3 = alloca i64, align 8
  %4 = alloca i64, align 8
  store i64 %0, ptr %3, align 8, !tbaa !9
  store i64 %1, ptr %4, align 8, !tbaa !9
  %5 = load i64, ptr %3, align 8, !tbaa !9
  %6 = icmp ne i64 %5, 0
  br i1 %6, label %7, label %15

7:                                                ; preds = %2
  %8 = load i64, ptr %4, align 8, !tbaa !9
  %9 = load i64, ptr %3, align 8, !tbaa !9
  %10 = udiv i64 -1, %9
  %11 = icmp ugt i64 %8, %10
  br i1 %11, label %12, label %15

12:                                               ; preds = %7
  %13 = load i64, ptr %3, align 8, !tbaa !9
  %14 = load i64, ptr %4, align 8, !tbaa !9
  call void (ptr, ...) @die(ptr noundef @.str, i64 noundef %13, i64 noundef %14) #10
  unreachable

15:                                               ; preds = %7, %2
  %16 = load i64, ptr %3, align 8, !tbaa !9
  %17 = load i64, ptr %4, align 8, !tbaa !9
  %18 = mul i64 %16, %17
  ret i64 %18
}

; Function Attrs: nounwind uwtable
define internal void @range_set_grow(ptr noundef %0, i64 noundef %1) #0 {
  %3 = alloca ptr, align 8
  %4 = alloca i64, align 8
  store ptr %0, ptr %3, align 8, !tbaa !4
  store i64 %1, ptr %4, align 8, !tbaa !9
  br label %5

5:                                                ; preds = %2
  %6 = load ptr, ptr %3, align 8, !tbaa !4
  %7 = getelementptr inbounds nuw %struct.range_set, ptr %6, i32 0, i32 1
  %8 = load i32, ptr %7, align 4, !tbaa !11
  %9 = zext i32 %8 to i64
  %10 = load i64, ptr %4, align 8, !tbaa !9
  %11 = add i64 %9, %10
  %12 = load ptr, ptr %3, align 8, !tbaa !4
  %13 = getelementptr inbounds nuw %struct.range_set, ptr %12, i32 0, i32 0
  %14 = load i32, ptr %13, align 8, !tbaa !15
  %15 = zext i32 %14 to i64
  %16 = icmp ugt i64 %11, %15
  br i1 %16, label %17, label %63

17:                                               ; preds = %5
  %18 = load ptr, ptr %3, align 8, !tbaa !4
  %19 = getelementptr inbounds nuw %struct.range_set, ptr %18, i32 0, i32 0
  %20 = load i32, ptr %19, align 8, !tbaa !15
  %21 = add i32 %20, 16
  %22 = mul i32 %21, 3
  %23 = udiv i32 %22, 2
  %24 = zext i32 %23 to i64
  %25 = load ptr, ptr %3, align 8, !tbaa !4
  %26 = getelementptr inbounds nuw %struct.range_set, ptr %25, i32 0, i32 1
  %27 = load i32, ptr %26, align 4, !tbaa !11
  %28 = zext i32 %27 to i64
  %29 = load i64, ptr %4, align 8, !tbaa !9
  %30 = add i64 %28, %29
  %31 = icmp ult i64 %24, %30
  br i1 %31, label %32, label %42

32:                                               ; preds = %17
  %33 = load ptr, ptr %3, align 8, !tbaa !4
  %34 = getelementptr inbounds nuw %struct.range_set, ptr %33, i32 0, i32 1
  %35 = load i32, ptr %34, align 4, !tbaa !11
  %36 = zext i32 %35 to i64
  %37 = load i64, ptr %4, align 8, !tbaa !9
  %38 = add i64 %36, %37
  %39 = trunc i64 %38 to i32
  %40 = load ptr, ptr %3, align 8, !tbaa !4
  %41 = getelementptr inbounds nuw %struct.range_set, ptr %40, i32 0, i32 0
  store i32 %39, ptr %41, align 8, !tbaa !15
  br label %51

42:                                               ; preds = %17
  %43 = load ptr, ptr %3, align 8, !tbaa !4
  %44 = getelementptr inbounds nuw %struct.range_set, ptr %43, i32 0, i32 0
  %45 = load i32, ptr %44, align 8, !tbaa !15
  %46 = add i32 %45, 16
  %47 = mul i32 %46, 3
  %48 = udiv i32 %47, 2
  %49 = load ptr, ptr %3, align 8, !tbaa !4
  %50 = getelementptr inbounds nuw %struct.range_set, ptr %49, i32 0, i32 0
  store i32 %48, ptr %50, align 8, !tbaa !15
  br label %51

51:                                               ; preds = %42, %32
  %52 = load ptr, ptr %3, align 8, !tbaa !4
  %53 = getelementptr inbounds nuw %struct.range_set, ptr %52, i32 0, i32 2
  %54 = load ptr, ptr %53, align 8, !tbaa !16
  %55 = load ptr, ptr %3, align 8, !tbaa !4
  %56 = getelementptr inbounds nuw %struct.range_set, ptr %55, i32 0, i32 0
  %57 = load i32, ptr %56, align 8, !tbaa !15
  %58 = zext i32 %57 to i64
  %59 = call i64 @st_mult(i64 noundef 16, i64 noundef %58)
  %60 = call ptr @xrealloc(ptr noundef %54, i64 noundef %59)
  %61 = load ptr, ptr %3, align 8, !tbaa !4
  %62 = getelementptr inbounds nuw %struct.range_set, ptr %61, i32 0, i32 2
  store ptr %60, ptr %62, align 8, !tbaa !16
  br label %63

63:                                               ; preds = %51, %5
  br label %64

64:                                               ; preds = %63
  ret void
}

; Function Attrs: inlinehint nounwind uwtable
define internal void @copy_array(ptr noundef %0, ptr noundef %1, i64 noundef %2, i64 noundef %3) #3 {
  %5 = alloca ptr, align 8
  %6 = alloca ptr, align 8
  %7 = alloca i64, align 8
  %8 = alloca i64, align 8
  store ptr %0, ptr %5, align 8, !tbaa !23
  store ptr %1, ptr %6, align 8, !tbaa !23
  store i64 %2, ptr %7, align 8, !tbaa !9
  store i64 %3, ptr %8, align 8, !tbaa !9
  %9 = load i64, ptr %7, align 8, !tbaa !9
  %10 = icmp ne i64 %9, 0
  br i1 %10, label %11, label %17

11:                                               ; preds = %4
  %12 = load ptr, ptr %5, align 8, !tbaa !23
  %13 = load ptr, ptr %6, align 8, !tbaa !23
  %14 = load i64, ptr %8, align 8, !tbaa !9
  %15 = load i64, ptr %7, align 8, !tbaa !9
  %16 = call i64 @st_mult(i64 noundef %14, i64 noundef %15)
  call void @llvm.memcpy.p0.p0.i64(ptr align 1 %12, ptr align 1 %13, i64 %16, i1 false)
  br label %17

17:                                               ; preds = %11, %4
  ret void
}

; Function Attrs: nounwind uwtable
define dso_local void @range_set_init(ptr noundef %0, i64 noundef %1) #0 {
  %3 = alloca ptr, align 8
  %4 = alloca i64, align 8
  store ptr %0, ptr %3, align 8, !tbaa !4
  store i64 %1, ptr %4, align 8, !tbaa !9
  %5 = load ptr, ptr %3, align 8, !tbaa !4
  %6 = getelementptr inbounds nuw %struct.range_set, ptr %5, i32 0, i32 1
  store i32 0, ptr %6, align 4, !tbaa !11
  %7 = load ptr, ptr %3, align 8, !tbaa !4
  %8 = getelementptr inbounds nuw %struct.range_set, ptr %7, i32 0, i32 0
  store i32 0, ptr %8, align 8, !tbaa !15
  %9 = load ptr, ptr %3, align 8, !tbaa !4
  %10 = getelementptr inbounds nuw %struct.range_set, ptr %9, i32 0, i32 2
  store ptr null, ptr %10, align 8, !tbaa !16
  %11 = load i64, ptr %4, align 8, !tbaa !9
  %12 = icmp ne i64 %11, 0
  br i1 %12, label %13, label %16

13:                                               ; preds = %2
  %14 = load ptr, ptr %3, align 8, !tbaa !4
  %15 = load i64, ptr %4, align 8, !tbaa !9
  call void @range_set_grow(ptr noundef %14, i64 noundef %15)
  br label %16

16:                                               ; preds = %13, %2
  ret void
}

; Function Attrs: nounwind uwtable
define internal void @range_set_copy(ptr noundef %0, ptr noundef %1) #0 {
  %3 = alloca ptr, align 8
  %4 = alloca ptr, align 8
  store ptr %0, ptr %3, align 8, !tbaa !4
  store ptr %1, ptr %4, align 8, !tbaa !4
  %5 = load ptr, ptr %3, align 8, !tbaa !4
  %6 = load ptr, ptr %4, align 8, !tbaa !4
  %7 = getelementptr inbounds nuw %struct.range_set, ptr %6, i32 0, i32 1
  %8 = load i32, ptr %7, align 4, !tbaa !11
  %9 = zext i32 %8 to i64
  call void @range_set_init(ptr noundef %5, i64 noundef %9)
  %10 = load ptr, ptr %3, align 8, !tbaa !4
  %11 = getelementptr inbounds nuw %struct.range_set, ptr %10, i32 0, i32 2
  %12 = load ptr, ptr %11, align 8, !tbaa !16
  %13 = load ptr, ptr %4, align 8, !tbaa !4
  %14 = getelementptr inbounds nuw %struct.range_set, ptr %13, i32 0, i32 2
  %15 = load ptr, ptr %14, align 8, !tbaa !16
  %16 = load ptr, ptr %4, align 8, !tbaa !4
  %17 = getelementptr inbounds nuw %struct.range_set, ptr %16, i32 0, i32 1
  %18 = load i32, ptr %17, align 4, !tbaa !11
  %19 = zext i32 %18 to i64
  call void @copy_array(ptr noundef %12, ptr noundef %15, i64 noundef %19, i64 noundef 16)
  %20 = load ptr, ptr %4, align 8, !tbaa !4
  %21 = getelementptr inbounds nuw %struct.range_set, ptr %20, i32 0, i32 1
  %22 = load i32, ptr %21, align 4, !tbaa !11
  %23 = load ptr, ptr %3, align 8, !tbaa !4
  %24 = getelementptr inbounds nuw %struct.range_set, ptr %23, i32 0, i32 1
  store i32 %22, ptr %24, align 4, !tbaa !11
  ret void
}

; Function Attrs: nounwind uwtable
define internal void @line_log_data_init(ptr noundef %0) #0 {
  %2 = alloca ptr, align 8
  store ptr %0, ptr %2, align 8, !tbaa !81
  %3 = load ptr, ptr %2, align 8, !tbaa !81
  call void @llvm.memset.p0.i64(ptr align 8 %3, i8 0, i64 72, i1 false)
  %4 = load ptr, ptr %2, align 8, !tbaa !81
  %5 = getelementptr inbounds nuw %struct.line_log_data, ptr %4, i32 0, i32 2
  call void @range_set_init(ptr noundef %5, i64 noundef 0)
  ret void
}

; Function Attrs: nounwind uwtable
define internal ptr @line_log_data_copy_one(ptr noundef %0) #0 {
  %2 = alloca ptr, align 8
  %3 = alloca ptr, align 8
  store ptr %0, ptr %2, align 8, !tbaa !81
  call void @llvm.lifetime.start.p0(i64 8, ptr %3) #9
  %4 = call ptr @xmalloc(i64 noundef 72)
  store ptr %4, ptr %3, align 8, !tbaa !81
  %5 = load ptr, ptr %3, align 8, !tbaa !81
  call void @line_log_data_init(ptr noundef %5)
  %6 = load ptr, ptr %3, align 8, !tbaa !81
  %7 = getelementptr inbounds nuw %struct.line_log_data, ptr %6, i32 0, i32 2
  %8 = load ptr, ptr %2, align 8, !tbaa !81
  %9 = getelementptr inbounds nuw %struct.line_log_data, ptr %8, i32 0, i32 2
  call void @range_set_copy(ptr noundef %7, ptr noundef %9)
  %10 = load ptr, ptr %2, align 8, !tbaa !81
  %11 = getelementptr inbounds nuw %struct.line_log_data, ptr %10, i32 0, i32 1
  %12 = load ptr, ptr %11, align 8, !tbaa !135
  %13 = call ptr @xstrdup(ptr noundef %12)
  %14 = load ptr, ptr %3, align 8, !tbaa !81
  %15 = getelementptr inbounds nuw %struct.line_log_data, ptr %14, i32 0, i32 1
  store ptr %13, ptr %15, align 8, !tbaa !135
  %16 = load ptr, ptr %3, align 8, !tbaa !81
  call void @llvm.lifetime.end.p0(i64 8, ptr %3) #9
  ret ptr %16
}

; Function Attrs: nounwind uwtable
define internal ptr @line_log_data_copy(ptr noundef %0) #0 {
  %2 = alloca ptr, align 8
  %3 = alloca ptr, align 8
  %4 = alloca ptr, align 8
  %5 = alloca ptr, align 8
  store ptr %0, ptr %2, align 8, !tbaa !81
  call void @llvm.lifetime.start.p0(i64 8, ptr %3) #9
  store ptr null, ptr %3, align 8, !tbaa !81
  call void @llvm.lifetime.start.p0(i64 8, ptr %4) #9
  store ptr null, ptr %4, align 8, !tbaa !81
  call void @llvm.lifetime.start.p0(i64 8, ptr %5) #9
  store ptr null, ptr %5, align 8, !tbaa !81
  %6 = load ptr, ptr %2, align 8, !tbaa !81
  %7 = call ptr @line_log_data_copy_one(ptr noundef %6)
  store ptr %7, ptr %5, align 8, !tbaa !81
  store ptr %7, ptr %4, align 8, !tbaa !81
  store ptr %7, ptr %3, align 8, !tbaa !81
  %8 = load ptr, ptr %2, align 8, !tbaa !81
  %9 = getelementptr inbounds nuw %struct.line_log_data, ptr %8, i32 0, i32 0
  %10 = load ptr, ptr %9, align 8, !tbaa !131
  store ptr %10, ptr %2, align 8, !tbaa !81
  br label %11

11:                                               ; preds = %14, %1
  %12 = load ptr, ptr %2, align 8, !tbaa !81
  %13 = icmp ne ptr %12, null
  br i1 %13, label %14, label %24

14:                                               ; preds = %11
  %15 = load ptr, ptr %2, align 8, !tbaa !81
  %16 = call ptr @line_log_data_copy_one(ptr noundef %15)
  store ptr %16, ptr %4, align 8, !tbaa !81
  %17 = load ptr, ptr %4, align 8, !tbaa !81
  %18 = load ptr, ptr %5, align 8, !tbaa !81
  %19 = getelementptr inbounds nuw %struct.line_log_data, ptr %18, i32 0, i32 0
  store ptr %17, ptr %19, align 8, !tbaa !131
  %20 = load ptr, ptr %4, align 8, !tbaa !81
  store ptr %20, ptr %5, align 8, !tbaa !81
  %21 = load ptr, ptr %2, align 8, !tbaa !81
  %22 = getelementptr inbounds nuw %struct.line_log_data, ptr %21, i32 0, i32 0
  %23 = load ptr, ptr %22, align 8, !tbaa !131
  store ptr %23, ptr %2, align 8, !tbaa !81
  br label %11, !llvm.loop !155

24:                                               ; preds = %11
  %25 = load ptr, ptr %3, align 8, !tbaa !81
  call void @llvm.lifetime.end.p0(i64 8, ptr %5) #9
  call void @llvm.lifetime.end.p0(i64 8, ptr %4) #9
  call void @llvm.lifetime.end.p0(i64 8, ptr %3) #9
  ret ptr %25
}