; Function Attrs: nounwind uwtable
define internal fastcc noundef ptr @line_log_data_copy(ptr noundef nonnull readonly captures(none) %0) unnamed_addr #0 {
  %2 = tail call ptr @xmalloc(i64 noundef 72) #16
  tail call void @llvm.memset.p0.i64(ptr noundef nonnull align 8 dereferenceable(72) %2, i8 0, i64 72, i1 false)
  %3 = getelementptr inbounds nuw i8, ptr %2, i64 16
  %4 = getelementptr inbounds nuw i8, ptr %0, i64 20
  %5 = load i32, ptr %4, align 4, !tbaa !12
  %.not.i.i.i = icmp eq i32 %5, 0
  tail call void @llvm.memset.p0.i64(ptr noundef nonnull align 8 dereferenceable(16) %3, i8 0, i64 16, i1 false)
  br i1 %.not.i.i.i, label %range_set_init.exit.i.i, label %range_set_grow.exit.i.i.i

range_set_grow.exit.i.i.i:                        ; preds = %1
  %6 = getelementptr inbounds nuw i8, ptr %2, i64 24
  %7 = tail call i32 @llvm.umax.i32(i32 %5, i32 24)
  %storemerge14.i.i.i.i = zext i32 %7 to i64
  store i32 %7, ptr %3, align 8, !tbaa !4
  %8 = shl nuw nsw i64 %storemerge14.i.i.i.i, 4
  %9 = tail call ptr @xrealloc(ptr noundef null, i64 noundef %8) #16
  store ptr %9, ptr %6, align 8, !tbaa !11
  br label %range_set_init.exit.i.i

range_set_init.exit.i.i:                          ; preds = %range_set_grow.exit.i.i.i, %1
  %10 = phi ptr [ null, %1 ], [ %9, %range_set_grow.exit.i.i.i ]
  %11 = load i32, ptr %4, align 4, !tbaa !12
  %.not.i7.i.i = icmp eq i32 %11, 0
  br i1 %.not.i7.i.i, label %line_log_data_copy_one.exit, label %st_mult.exit.i.i.i

st_mult.exit.i.i.i:                               ; preds = %range_set_init.exit.i.i
  %12 = zext i32 %11 to i64
  %13 = getelementptr inbounds nuw i8, ptr %0, i64 24
  %14 = load ptr, ptr %13, align 8, !tbaa !11
  %15 = shl nuw nsw i64 %12, 4
  tail call void @llvm.memcpy.p0.p0.i64(ptr align 1 %10, ptr readonly align 1 %14, i64 %15, i1 false)
  %.pre.i.i = load i32, ptr %4, align 4, !tbaa !12
  br label %line_log_data_copy_one.exit

line_log_data_copy_one.exit:                      ; preds = %range_set_init.exit.i.i, %st_mult.exit.i.i.i
  %16 = phi i32 [ 0, %range_set_init.exit.i.i ], [ %.pre.i.i, %st_mult.exit.i.i.i ]
  %17 = getelementptr inbounds nuw i8, ptr %2, i64 20
  store i32 %16, ptr %17, align 4, !tbaa !12
  %18 = getelementptr inbounds nuw i8, ptr %0, i64 8
  %19 = load ptr, ptr %18, align 8, !tbaa !113
  %20 = tail call ptr @xstrdup(ptr noundef %19) #16
  %21 = getelementptr inbounds nuw i8, ptr %2, i64 8
  store ptr %20, ptr %21, align 8, !tbaa !113
  %.0918 = load ptr, ptr %0, align 8, !tbaa !118
  %.not19 = icmp eq ptr %.0918, null
  br i1 %.not19, label %._crit_edge, label %.lr.ph

.lr.ph:                                           ; preds = %line_log_data_copy_one.exit, %line_log_data_copy_one.exit17
  %.0921 = phi ptr [ %.09, %line_log_data_copy_one.exit17 ], [ %.0918, %line_log_data_copy_one.exit ]
  %.020 = phi ptr [ %22, %line_log_data_copy_one.exit17 ], [ %2, %line_log_data_copy_one.exit ]
  %22 = tail call ptr @xmalloc(i64 noundef 72) #16
  tail call void @llvm.memset.p0.i64(ptr noundef nonnull align 8 dereferenceable(72) %22, i8 0, i64 72, i1 false)
  %23 = getelementptr inbounds nuw i8, ptr %22, i64 16
  %24 = getelementptr inbounds nuw i8, ptr %.0921, i64 20
  %25 = load i32, ptr %24, align 4, !tbaa !12
  %.not.i.i.i10 = icmp eq i32 %25, 0
  tail call void @llvm.memset.p0.i64(ptr noundef nonnull align 8 dereferenceable(16) %23, i8 0, i64 16, i1 false)
  br i1 %.not.i.i.i10, label %range_set_init.exit.i.i13, label %range_set_grow.exit.i.i.i11

range_set_grow.exit.i.i.i11:                      ; preds = %.lr.ph
  %26 = getelementptr inbounds nuw i8, ptr %22, i64 24
  %27 = tail call i32 @llvm.umax.i32(i32 %25, i32 24)
  %storemerge14.i.i.i.i12 = zext i32 %27 to i64
  store i32 %27, ptr %23, align 8, !tbaa !4
  %28 = shl nuw nsw i64 %storemerge14.i.i.i.i12, 4
  %29 = tail call ptr @xrealloc(ptr noundef null, i64 noundef %28) #16
  store ptr %29, ptr %26, align 8, !tbaa !11
  br label %range_set_init.exit.i.i13

range_set_init.exit.i.i13:                        ; preds = %range_set_grow.exit.i.i.i11, %.lr.ph
  %30 = phi ptr [ null, %.lr.ph ], [ %29, %range_set_grow.exit.i.i.i11 ]
  %31 = load i32, ptr %24, align 4, !tbaa !12
  %.not.i7.i.i14 = icmp eq i32 %31, 0
  br i1 %.not.i7.i.i14, label %line_log_data_copy_one.exit17, label %st_mult.exit.i.i.i15

st_mult.exit.i.i.i15:                             ; preds = %range_set_init.exit.i.i13
  %32 = zext i32 %31 to i64
  %33 = getelementptr inbounds nuw i8, ptr %.0921, i64 24
  %34 = load ptr, ptr %33, align 8, !tbaa !11
  %35 = shl nuw nsw i64 %32, 4
  tail call void @llvm.memcpy.p0.p0.i64(ptr align 1 %30, ptr readonly align 1 %34, i64 %35, i1 false)
  %.pre.i.i16 = load i32, ptr %24, align 4, !tbaa !12
  br label %line_log_data_copy_one.exit17

line_log_data_copy_one.exit17:                    ; preds = %range_set_init.exit.i.i13, %st_mult.exit.i.i.i15
  %36 = phi i32 [ 0, %range_set_init.exit.i.i13 ], [ %.pre.i.i16, %st_mult.exit.i.i.i15 ]
  %37 = getelementptr inbounds nuw i8, ptr %22, i64 20
  store i32 %36, ptr %37, align 4, !tbaa !12
  %38 = getelementptr inbounds nuw i8, ptr %.0921, i64 8
  %39 = load ptr, ptr %38, align 8, !tbaa !113
  %40 = tail call ptr @xstrdup(ptr noundef %39) #16
  %41 = getelementptr inbounds nuw i8, ptr %22, i64 8
  store ptr %40, ptr %41, align 8, !tbaa !113
  store ptr %22, ptr %.020, align 8, !tbaa !118
  %.09 = load ptr, ptr %.0921, align 8, !tbaa !118
  %.not = icmp eq ptr %.09, null
  br i1 %.not, label %._crit_edge, label %.lr.ph, !llvm.loop !165

._crit_edge:                                      ; preds = %line_log_data_copy_one.exit17, %line_log_data_copy_one.exit
  ret ptr %2
}